target datalayout = "e-m:e-p270:32:32-p271:32:32-p272:64:64-i64:64-i128:128-f80:128-n8:16:32:64-S128"
target triple = "x86_64-pc-linux-gnu"

%"struct.faiss::Index.base" = type <{ ptr, i32, [4 x i8], i64, i8, i8, [2 x i8], i32, float }>
%"struct.faiss::ProductQuantizer" = type { %"struct.faiss::Quantizer", i64, i64, i64, i64, i8, i32, %"struct.faiss::ClusteringParameters", ptr, %"class.std::vector.0", %"class.std::vector.0", %"class.std::vector.0", %"class.std::vector.0" }
%"struct.faiss::Quantizer" = type { ptr, i64, i64 }
%"struct.faiss::ClusteringParameters" = type <{ i32, i32, i8, i8, i8, i8, i8, [3 x i8], i32, i32, i32, [4 x i8], i64, i8, i8, [6 x i8] }>
%"class.std::vector.0" = type { %"struct.std::_Vector_base.1" }
%"struct.std::_Vector_base.1" = type { %"struct.std::_Vector_base<float, std::allocator<float>>::_Vector_impl" }
%"struct.std::_Vector_base<float, std::allocator<float>>::_Vector_impl" = type { %"struct.std::_Vector_base<float, std::allocator<float>>::_Vector_impl_data" }
%"struct.std::_Vector_base<float, std::allocator<float>>::_Vector_impl_data" = type { ptr, ptr, ptr }
%"struct.faiss::Index" = type <{ ptr, i32, [4 x i8], i64, i8, i8, [2 x i8], i32, float, [4 x i8] }>
%"class.std::__cxx11::basic_string" = type { %"struct.std::__cxx11::basic_string<char>::_Alloc_hider", i64, %union.anon }
%"struct.std::__cxx11::basic_string<char>::_Alloc_hider" = type { ptr }
%union.anon = type { i64, [8 x i8] }
%"struct.faiss::IndexPQ" = type <{ %"struct.faiss::IndexFlatCodes", %"struct.faiss::ProductQuantizer", i8, [7 x i8], %"struct.faiss::PolysemousTraining", i32, i8, [3 x i8], i32, [4 x i8] }>
%"struct.faiss::IndexFlatCodes" = type { %"struct.faiss::Index.base", i64, %"class.std::vector" }
%"class.std::vector" = type { %"struct.std::_Vector_base" }
%"struct.std::_Vector_base" = type { %"struct.std::_Vector_base<unsigned char, std::allocator<unsigned char>>::_Vector_impl" }
%"struct.std::_Vector_base<unsigned char, std::allocator<unsigned char>>::_Vector_impl" = type { %"struct.std::_Vector_base<unsigned char, std::allocator<unsigned char>>::_Vector_impl_data" }
%"struct.std::_Vector_base<unsigned char, std::allocator<unsigned char>>::_Vector_impl_data" = type { ptr, ptr, ptr }
%"struct.faiss::PolysemousTraining" = type { %"struct.faiss::SimulatedAnnealingParameters.base", i32, i32, double, i64, %"class.std::__cxx11::basic_string" }
%"struct.faiss::SimulatedAnnealingParameters.base" = type <{ double, double, i32, i32, i32, i32, i8, i8 }>

; Function Attrs: mustprogress uwtable
define void @_ZN5faiss7IndexPQC2Ev(ptr noundef nonnull align 8 dereferenceable(404) %0) unnamed_addr #1 align 2 personality ptr @__gxx_personality_v0 {
  %2 = alloca ptr, align 8
  %3 = alloca ptr, align 8
  %4 = alloca i32, align 4
  store ptr %0, ptr %2, align 8, !tbaa !50
  %5 = load ptr, ptr %2, align 8
  call void @_ZN5faiss14IndexFlatCodesC2Ev(ptr noundef nonnull align 8 dereferenceable(72) %5)
  store ptr getelementptr inbounds inrange(-16, 192) ({ [26 x ptr] }, ptr @_ZTVN5faiss7IndexPQE, i32 0, i32 0, i32 2), ptr %5, align 8, !tbaa !9
  %6 = getelementptr inbounds nuw %"struct.faiss::IndexPQ", ptr %5, i32 0, i32 1
  invoke void @_ZN5faiss16ProductQuantizerC1Ev(ptr noundef nonnull align 8 dereferenceable(216) %6)
          to label %7 unwind label %25

7:                                                ; preds = %1
  %8 = getelementptr inbounds nuw %"struct.faiss::IndexPQ", ptr %5, i32 0, i32 4
  invoke void @_ZN5faiss18PolysemousTrainingC1Ev(ptr noundef nonnull align 8 dereferenceable(96) %8)
          to label %9 unwind label %29

9:                                                ; preds = %7
  %10 = getelementptr inbounds nuw %"struct.faiss::Index", ptr %5, i32 0, i32 7
  store i32 1, ptr %10, align 4, !tbaa !77
  %11 = getelementptr inbounds nuw %"struct.faiss::Index", ptr %5, i32 0, i32 5
  store i8 0, ptr %11, align 1, !tbaa !34
  %12 = getelementptr inbounds nuw %"struct.faiss::IndexPQ", ptr %5, i32 0, i32 2
  store i8 0, ptr %12, align 8, !tbaa !52
  %13 = getelementptr inbounds nuw %"struct.faiss::IndexPQ", ptr %5, i32 0, i32 1
  %14 = getelementptr inbounds nuw %"struct.faiss::ProductQuantizer", ptr %13, i32 0, i32 2
  %15 = load i64, ptr %14, align 8, !tbaa !95
  %16 = getelementptr inbounds nuw %"struct.faiss::IndexPQ", ptr %5, i32 0, i32 1
  %17 = getelementptr inbounds nuw %"struct.faiss::ProductQuantizer", ptr %16, i32 0, i32 1
  %18 = load i64, ptr %17, align 8, !tbaa !96
  %19 = mul i64 %15, %18
  %20 = add i64 %19, 1
  %21 = trunc i64 %20 to i32
  %22 = getelementptr inbounds nuw %"struct.faiss::IndexPQ", ptr %5, i32 0, i32 8
  store i32 %21, ptr %22, align 8, !tbaa !92
  %23 = getelementptr inbounds nuw %"struct.faiss::IndexPQ", ptr %5, i32 0, i32 5
  store i32 0, ptr %23, align 8, !tbaa !70
  %24 = getelementptr inbounds nuw %"struct.faiss::IndexPQ", ptr %5, i32 0, i32 6
  store i8 0, ptr %24, align 4, !tbaa !94
  ret void

25:                                               ; preds = %1
  %26 = landingpad { ptr, i32 }
          cleanup
  %27 = extractvalue { ptr, i32 } %26, 0
  store ptr %27, ptr %3, align 8
  %28 = extractvalue { ptr, i32 } %26, 1
  store i32 %28, ptr %4, align 4
  br label %33

29:                                               ; preds = %7
  %30 = landingpad { ptr, i32 }
          cleanup
  %31 = extractvalue { ptr, i32 } %30, 0
  store ptr %31, ptr %3, align 8
  %32 = extractvalue { ptr, i32 } %30, 1
  store i32 %32, ptr %4, align 4
  call void @_ZN5faiss16ProductQuantizerD2Ev(ptr noundef nonnull align 8 dereferenceable(216) %6) #20
  br label %33

33:                                               ; preds = %29, %25
  call void @_ZN5faiss14IndexFlatCodesD2Ev(ptr noundef nonnull align 8 dereferenceable(72) %5) #20
  br label %34

34:                                               ; preds = %33
  %35 = load ptr, ptr %3, align 8
  %36 = load i32, ptr %4, align 4
  %37 = insertvalue { ptr, i32 } poison, ptr %35, 0
  %38 = insertvalue { ptr, i32 } %37, i32 %36, 1
  resume { ptr, i32 } %38
}