; Function Attrs: mustprogress uwtable
define void @_ZN5faiss7IndexPQC2Ev(ptr noundef nonnull align 8 dereferenceable(404) %0) unnamed_addr #1 align 2 personality ptr @__gxx_personality_v0 {
  tail call void @_ZN5faiss14IndexFlatCodesC2Ev(ptr noundef nonnull align 8 dereferenceable(72) %0)
  store ptr getelementptr inbounds nuw inrange(-16, 192) (i8, ptr @_ZTVN5faiss7IndexPQE, i64 16), ptr %0, align 8, !tbaa !4
  %2 = getelementptr inbounds nuw i8, ptr %0, i64 72
  invoke void @_ZN5faiss16ProductQuantizerC1Ev(ptr noundef nonnull align 8 dereferenceable(216) %2)
          to label %3 unwind label %19

3:                                                ; preds = %1
  %4 = getelementptr inbounds nuw i8, ptr %0, i64 296
  invoke void @_ZN5faiss18PolysemousTrainingC1Ev(ptr noundef nonnull align 8 dereferenceable(96) %4)
          to label %5 unwind label %21

5:                                                ; preds = %3
  %6 = getelementptr inbounds nuw i8, ptr %0, i64 28
  store i32 1, ptr %6, align 4, !tbaa !76
  %7 = getelementptr inbounds nuw i8, ptr %0, i64 25
  store i8 0, ptr %7, align 1, !tbaa !32
  %8 = getelementptr inbounds nuw i8, ptr %0, i64 288
  store i8 0, ptr %8, align 8, !tbaa !60
  %9 = getelementptr inbounds nuw i8, ptr %0, i64 104
  %10 = load i64, ptr %9, align 8, !tbaa !92
  %11 = getelementptr inbounds nuw i8, ptr %0, i64 96
  %12 = load i64, ptr %11, align 8, !tbaa !93
  %13 = mul i64 %12, %10
  %14 = trunc i64 %13 to i32
  %15 = add i32 %14, 1
  %16 = getelementptr inbounds nuw i8, ptr %0, i64 400
  store i32 %15, ptr %16, align 8, !tbaa !128
  %17 = getelementptr inbounds nuw i8, ptr %0, i64 392
  store i32 0, ptr %17, align 8, !tbaa !129
  %18 = getelementptr inbounds nuw i8, ptr %0, i64 396
  store i8 0, ptr %18, align 4, !tbaa !91
  ret void

19:                                               ; preds = %1
  %20 = landingpad { ptr, i32 }
          cleanup
  br label %23

21:                                               ; preds = %3
  %22 = landingpad { ptr, i32 }
          cleanup
  tail call void @_ZN5faiss16ProductQuantizerD2Ev(ptr noundef nonnull align 8 dereferenceable(216) %2) #20
  br label %23

23:                                               ; preds = %21, %19
  %.pn = phi { ptr, i32 } [ %22, %21 ], [ %20, %19 ]
  tail call void @_ZN5faiss14IndexFlatCodesD2Ev(ptr noundef nonnull align 8 dereferenceable(72) %0) #20
  resume { ptr, i32 } %.pn
}